target datalayout = "e-m:e-p270:32:32-p271:32:32-p272:64:64-i64:64-i128:128-f80:128-n8:16:32:64-S128"
target triple = "x86_64-pc-linux-gnu"

%struct.quic_lcidm_st = type { ptr, ptr, ptr, i64 }

@.str = private unnamed_addr constant [33 x i8] c"../openssl/ssl/quic/quic_lcidm.c\00", align 1

; Function Attrs: inlinehint nounwind uwtable
define internal void @lh_QUIC_LCIDM_CONN_free(ptr noundef %0) #3 {
  %2 = alloca ptr, align 8
  store ptr %0, ptr %2, align 8, !tbaa !31
  %3 = load ptr, ptr %2, align 8, !tbaa !31
  call void @OPENSSL_LH_free(ptr noundef %3)
  ret void
}

; Function Attrs: inlinehint nounwind uwtable
define internal void @lh_QUIC_LCID_free(ptr noundef %0) #3 {
  %2 = alloca ptr, align 8
  store ptr %0, ptr %2, align 8, !tbaa !30
  %3 = load ptr, ptr %2, align 8, !tbaa !30
  call void @OPENSSL_LH_free(ptr noundef %3)
  ret void
}

; Function Attrs: inlinehint nounwind uwtable
define internal void @lh_QUIC_LCIDM_CONN_doall_arg(ptr noundef %0, ptr noundef %1, ptr noundef %2) #3 {
  %4 = alloca ptr, align 8
  %5 = alloca ptr, align 8
  %6 = alloca ptr, align 8
  store ptr %0, ptr %4, align 8, !tbaa !31
  store ptr %1, ptr %5, align 8, !tbaa !19
  store ptr %2, ptr %6, align 8, !tbaa !19
  %7 = load ptr, ptr %4, align 8, !tbaa !31
  %8 = load ptr, ptr %5, align 8, !tbaa !19
  %9 = load ptr, ptr %6, align 8, !tbaa !19
  call void @OPENSSL_LH_doall_arg(ptr noundef %7, ptr noundef %8, ptr noundef %9)
  ret void
}

; Function Attrs: inlinehint nounwind uwtable
define internal void @lh_QUIC_LCIDM_CONN_set_down_load(ptr noundef %0, i64 noundef %1) #3 {
  %3 = alloca ptr, align 8
  %4 = alloca i64, align 8
  store ptr %0, ptr %3, align 8, !tbaa !31
  store i64 %1, ptr %4, align 8, !tbaa !8
  %5 = load ptr, ptr %3, align 8, !tbaa !31
  %6 = load i64, ptr %4, align 8, !tbaa !8
  call void @OPENSSL_LH_set_down_load(ptr noundef %5, i64 noundef %6)
  ret void
}

; Function Attrs: nounwind uwtable
define void @ossl_quic_lcidm_free(ptr noundef %0) #0 {
  %2 = alloca ptr, align 8
  store ptr %0, ptr %2, align 8, !tbaa !10
  %3 = load ptr, ptr %2, align 8, !tbaa !10
  %4 = icmp eq ptr %3, null
  br i1 %4, label %5, label %6

5:                                                ; preds = %1
  br label %21

6:                                                ; preds = %1
  %7 = load ptr, ptr %2, align 8, !tbaa !10
  %8 = getelementptr inbounds nuw %struct.quic_lcidm_st, ptr %7, i32 0, i32 2
  %9 = load ptr, ptr %8, align 8, !tbaa !16
  call void @lh_QUIC_LCIDM_CONN_set_down_load(ptr noundef %9, i64 noundef 0)
  %10 = load ptr, ptr %2, align 8, !tbaa !10
  %11 = getelementptr inbounds nuw %struct.quic_lcidm_st, ptr %10, i32 0, i32 2
  %12 = load ptr, ptr %11, align 8, !tbaa !16
  %13 = load ptr, ptr %2, align 8, !tbaa !10
  call void @lh_QUIC_LCIDM_CONN_doall_arg(ptr noundef %12, ptr noundef @lcidm_delete_conn_, ptr noundef %13)
  %14 = load ptr, ptr %2, align 8, !tbaa !10
  %15 = getelementptr inbounds nuw %struct.quic_lcidm_st, ptr %14, i32 0, i32 1
  %16 = load ptr, ptr %15, align 8, !tbaa !12
  call void @lh_QUIC_LCID_free(ptr noundef %16)
  %17 = load ptr, ptr %2, align 8, !tbaa !10
  %18 = getelementptr inbounds nuw %struct.quic_lcidm_st, ptr %17, i32 0, i32 2
  %19 = load ptr, ptr %18, align 8, !tbaa !16
  call void @lh_QUIC_LCIDM_CONN_free(ptr noundef %19)
  %20 = load ptr, ptr %2, align 8, !tbaa !10
  call void @CRYPTO_free(ptr noundef %20, ptr noundef @.str, i32 noundef 162)
  br label %21

21:                                               ; preds = %6, %5
  ret void
}