; Function Attrs: nounwind uwtable
define void @ossl_quic_lcidm_free(ptr noundef %0) local_unnamed_addr #0 {
  %2 = icmp eq ptr %0, null
  br i1 %2, label %10, label %3

3:                                                ; preds = %1
  %4 = getelementptr inbounds nuw i8, ptr %0, i64 16
  %5 = load ptr, ptr %4, align 8, !tbaa !12
  tail call void @OPENSSL_LH_set_down_load(ptr noundef %5, i64 noundef 0) #11
  %6 = load ptr, ptr %4, align 8, !tbaa !12
  tail call void @OPENSSL_LH_doall_arg(ptr noundef %6, ptr noundef nonnull @lcidm_delete_conn_, ptr noundef nonnull %0) #11
  %7 = getelementptr inbounds nuw i8, ptr %0, i64 8
  %8 = load ptr, ptr %7, align 8, !tbaa !3
  tail call void @OPENSSL_LH_free(ptr noundef %8) #11
  %9 = load ptr, ptr %4, align 8, !tbaa !12
  tail call void @OPENSSL_LH_free(ptr noundef %9) #11
  tail call void @CRYPTO_free(ptr noundef nonnull %0, ptr noundef nonnull @.str, i32 noundef 162) #11
  br label %10

10:                                               ; preds = %1, %3
  ret void
}